Certificate:
    Data:
        Version: 3 (0x2)
        Serial Number: 14895220947849538440 (0xceb67488a7876b88)
    Signature Algorithm: sha1WithRSAEncryption
        Issuer: C=GD, ST=GD, O=yzx, OU=sa, CN=ldap02.51yzx.com/emailAddress=87897800@qq.com
        Validity
            Not Before: Aug  6 15:10:30 2015 GMT
            Not After : Aug  5 15:10:30 2018 GMT
        Subject: C=GD, ST=GD, O=yzx, OU=sa, CN=ldap02.51yzx.com/emailAddress=87897800@qq.com
        Subject Public Key Info:
            Public Key Algorithm: rsaEncryption
                Public-Key: (2048 bit)
                Modulus:
                    00:b5:9b:9d:7c:82:45:9e:18:d4:17:a4:84:ff:2e:
                    c4:15:b0:32:d9:c0:ab:f9:4f:bb:a8:1f:b5:89:58:
                    10:c3:1b:53:96:00:dd:d0:f8:bc:de:b6:24:a6:5c:
                    5b:b2:e7:6e:f4:fb:da:7e:a7:38:28:77:21:e3:21:
                    2a:3a:a1:49:16:cd:2d:a0:ab:75:a9:5a:0f:83:a6:
                    5c:ca:2f:ce:19:1a:88:46:a4:14:0c:22:4a:5d:be:
                    f5:3e:ec:50:b6:4f:87:1c:9f:c0:b2:11:a5:2a:2b:
                    bf:a7:fa:6c:d0:15:a5:f8:0d:73:11:f3:b1:96:80:
    
                Exponent: 65537 (0x10001)
        X509v3 extensions:
            X509v3 Subject Key Identifier: 
                2F:74:AE:25:FB:80:77:03:CB:9B:90:1C:62:3F:D7:F8:C7:9C:2C:7F
            X509v3 Authority Key Identifier: 
                keyid:2F:74:AE:25:FB:80:77:03:CB:9B:90:1C:62:3F:D7:F8:C7:9C:2C:7F

            X509v3 Basic Constraints: 
                CA:TRUE
    Signature Algorithm: sha1WithRSAEncryption
         21:48:8b:96:a6:80:ed:c1:13:15:91:66:df:2e:c0:56:ce:34:
         8b:cb:4c:8b:9c:71:1c:5b:6b:b4:ad:8f:62:14:a2:10:d5:bd:
         ea:4d:d8:45:d0:9b:34:a8:32:b1:d7:98:80:34:72:33:f6:39:
         f5:b4:9a:02:ce:c9:4f:bc:a8:0f:e3:3f:b4:a8:ec:3b:61:d6:
         25:a
         1f:24:1c:27
-----BEGIN CERTIFICATE-----
MIIDszCCApugAwIBAgIJAM62dIinh2uIMA0GCSqGSIb3DQEBBQUAMHAxCzAJBgNV
BAYTAkdEMQswCQYDVQQIDAJHRDEMMAoGA1UECgwDeXp4MQswCQYDVQQLDAJzYTEZ
MBcGA1UEAwwQbGRhcDAyLjUxeXp4LmNvbTEeMBwGCSqGSIb3DQEJARYPODc4OTc4
MDBAcXEuY29tMB4XDTE1MDgwNjE1MTAzMFoXDTE4MDgwNTE1MTAzMFowcDELMAkG
A1UEBhMCR0QxCzAJB
yC2K7BH7RXCVbJ3FAgMBAAGjUDBOMB0GA1UdDgQWBBQvdK4l+4B3A8ubkBxiP9f4
x5wsfzAfBgNVH
LCmdnEyLNot/TC0lZ044VHZ4EBbCzAY24ikJ9zFJA9yhVu7cFityQe8jt+Vv7l2F
Wx3vvpOC3KnXJix0ObpHeaIJV6deh9bAkkqtq7CbxzlY1r8fJBwn
-----END CERTIFICATE-----
