Certificate:
    Data:
        Version: 3 (0x2)
        Serial Number: 14895220947849538440 (0xceb67488a7876b88)
    Signature Algorithm: sha1WithRSAEncryption
        Issuer: C=GD, ST=GD, O=yzx, OU=sa, CN=ldap02.51yzx.com/emailAddress=87897800@qq.com
        Validity
            Not Before: Aug  6 15:10:30 2015 GMT
            Not After : Aug  5 15:10:30 2018 GMT
        Subject: C=GD, ST=GD, O=yzx, OU=sa, CN=ldap02.51yzx.com/emailAddress=87897800@qq.com
        Subject Public Key Info:
            Public Key Algorithm: rsaEncryption
                Public-Key: (2048 bit)
                Modulus:
                    00:b5:9b:9d:7c:82:45:9e:18:d4:17:a4:84:ff:2e:
                    c4:15:b0:32:d9:c0:ab:f9:4f:bb:a8:1f:b5:89:58:
                    10:c3:1b:53:96:00:dd:d0:f8:bc:de:b6:24:a6:5c:
                    5b:b2:e7:6e:f4:fb:da:7e:a7:38:28:77:21:e3:21:
                    2a:3a:a1:49:16:cd:2d:a0:ab:75:a9:5a:0f:83:a6:
                    5c:ca:2f:ce:19:1a:88:46:a4:14:0c:22:4a:5d:be:
                    f5:3e:ec:50:b6:4f:87:1c:9f:c0:b2:11:a5:2a:2b:
                    bf:a7:fa:6c:d0:15:a5:f8:0d:73:11:f3:b1:96:80:
                    3b:b2:ec:20:99:e2:51:67:29:f9:6b:74:46:e1:0c:
                    b7:da:6b:38:f6:a6:a5:77:29:61:89:82:83:9e:43:
                    70:6b:2c:3a:68:a6:df:27:10:39:2f:47:8d:be:24:
                    8c:f8:10:2f:93:04:e3:49:5b:fc:c4:6e:75:76:b3:
                    dd:4e:59:84:2a:9f:92:8d:e3:aa:98:ba:69:5c:aa:
                    b0:fb:01:da:5c:3a:50:ba:a3:a2:69:46:cf:99:e6:
                    5c:9f:b5:6c:e6:20:dc:86:b3:47:9b:3e:53:d5:21:
                    aa:a9:ce:4d:97:14:84:0a:b4:a5:2e:f0:19:37:f6:
                    d5:08:b9:72:f7:c8:2d:8a:ec:11:fb:45:70:95:6c:
                    9d:c5
                Exponent: 65537 (0x10001)
        X509v3 extensions:
            X509v3 Subject Key Identifier: 
                2F:74:AE:25:FB:80:77:03:CB:9B:90:1C:62:3F:D7:F8:C7:9C:2C:7F
            X509v3 Authority Key Identifier: 
                keyid:2F:74:AE:25:FB:80:77:03:CB:9B:90:1C:62:3F:D7:F8:C7:9C:2C:7F

            X509v3 Basic Constraints: 
                CA:TRUE
    Signature Algorithm: sha1WithRSAEncryption
         21:48:8b:96:a6:80:ed:c1:13:15:91:66:df:2e:c0:56:ce:34:
         8b:cb:4c:8b:9c:71:1c:5b:6b:b4:ad:8f:62:14:a2:10:d5:bd:
         ea:4d:d8:45:d0:9b:34:a8:32:b1:d7:98:80:34:72:33:f6:39:
         f5:b4:9a:02:ce:c9:4f:bc:a8:0f:e3:3f:b4:a8:ec:3b:61:d6:
         25:a3:a3:72:a6:53:02:cc:27:dc:4d:47:17:31:e8:31:f0:82:
         b9:e7:96:d0:93:d0:40:fe:68:73:53:9e:6c:7b:34:05:f4:9f:
         38:9c:1d:41:ff:c9:78:3e:ad:e0:41:ac:e9:e1:81:76:cf:5f:
         7b:d6:15:bb:d7:68:70:7b:9b:61:22:58:bc:0f:17:12:b8:e5:
         8e:e3:03:0d:cb:1a:8e:a3:25:c8:98:fc:fc:cd:d6:16:6f:c1:
         94:7c:08:0a:1b:95:82:2c:29:9d:9c:4c:8b:36:8b:7f:4c:2d:
         25:67:4e:38:54:76:78:10:16:c2:cc:06:36:e2:29:09:f7:31:
         49:03:dc:a1:56:ee:dc:16:2b:72:41:ef:23:b7:e5:6f:ee:5d:
         85:5b:1d:ef:be:93:82:dc:a9:d7:26:2c:74:39:ba:47:79:a2:
         09:57:a7:5e:87:d6:c0:92:4a:ad:ab:b0:9b:c7:39:58:d6:bf:
         1f:24:1c:27
-----BEGIN CERTIFICATE-----
MIIDszCCApugAwIBAgIJAM62dIinh2uIMA0GCSqGSIb3DQEBBQUAMHAxCzAJBgNV
BAYTAkdEMQswCQYDVQQIDAJHRDEMMAoGA1UECgwDeXp4MQswCQYDVQQLDAJzYTEZ
MBcGA1UEAwwQbGRhcDAyLjUxeXp4LmNvbTEeMBwGCSqGSIb3DQEJARYPODc4OTc4
MDBAcXEuY29tMB4XDTE1MDgwNjE1MTAzMFoXDTE4MDgwNTE1MTAzMFowcDELMAkG
A1UEBhMCR0QxCzAJBgNVBAgMAkdEMQwwCgYDVQQKDAN5engxCzAJBgNVBAsMAnNh
MRkwFwYDVQQDDBBsZGFwMDIuNTF5enguY29tMR4wHAYJKoZIhvcNAQkBFg84Nzg5
NzgwMEBxcS5jb20wggEiMA0GCSqGSIb3DQEBAQUAA4IBDwAwggEKAoIBAQC1m518
gkWeGNQXpIT/LsQVsDLZwKv5T7uoH7WJWBDDG1OWAN3Q+LzetiSmXFuy5270+9p+
pzgodyHjISo6oUkWzS2gq3WpWg+DplzKL84ZGohGpBQMIkpdvvU+7FC2T4ccn8Cy
EaUqK7+n+mzQFaX4DXMR87GWgDuy7CCZ4lFnKflrdEbhDLfaazj2pqV3KWGJgoOe
Q3BrLDpopt8nEDkvR42+JIz4EC+TBONJW/zEbnV2s91OWYQqn5KN46qYumlcqrD7
AdpcOlC6o6JpRs+Z5lyftWzmINyGs0ebPlPVIaqpzk2XFIQKtKUu8Bk39tUIuXL3
yC2K7BH7RXCVbJ3FAgMBAAGjUDBOMB0GA1UdDgQWBBQvdK4l+4B3A8ubkBxiP9f4
x5wsfzAfBgNVHSMEGDAWgBQvdK4l+4B3A8ubkBxiP9f4x5wsfzAMBgNVHRMEBTAD
AQH/MA0GCSqGSIb3DQEBBQUAA4IBAQAhSIuWpoDtwRMVkWbfLsBWzjSLy0yLnHEc
W2u0rY9iFKIQ1b3qTdhF0Js0qDKx15iANHIz9jn1tJoCzslPvKgP4z+0qOw7YdYl
o6NyplMCzCfcTUcXMegx8IK555bQk9BA/mhzU55sezQF9J84nB1B/8l4Pq3gQazp
4YF2z1971hW712hwe5thIli8DxcSuOWO4wMNyxqOoyXImPz8zdYWb8GUfAgKG5WC
LCmdnEyLNot/TC0lZ044VHZ4EBbCzAY24ikJ9zFJA9yhVu7cFityQe8jt+Vv7l2F
Wx3vvpOC3KnXJix0ObpHeaIJV6deh9bAkkqtq7CbxzlY1r8fJBwn
-----END CERTIFICATE-----
