Certificate:
    Data:
        Version: 3 (0x2)
        Serial Number: 14895220947849538440 (0xceb67488a7876b88)
    Signature Algorithm: sha1WithRSAEncryption
        Issuer: C=GD, ST=GD, O=yzx, OU=sa, CN=ldap02.51yzx.com/emailAddress=87897800@qq.com
        Validity
            Not Before: Aug  6 15:10:30 2015 GMT
            Not After : Aug  5 15:10:30 2018 GMT
        Subject: C=GD, ST=GD, O=yzx, OU=sa, CN=ldap02.51yzx.com/emailAddress=87897800@qq.com
        Subject Public Key Info:
            Public Key Algorithm: rsaEncryption
                Public-Key: (2048 bit)
                Modulus:
                    00:b5:9b:9d:7c:82:45:9e:18:d4:17:a4:84:ff:2e:
                    c4:15:b
                    2a:3a:a1:49:16:cd:2d:a0:ab:75:a9:5a:0f:83:a6:
                    5c:ca:2f
                    aa:a9:ce:4d:97:14:84:0a:b4:a5:2e:f0:19:37:f6:
                    d5:08:b9:72:f7:c8:2d:8a:ec:11:fb:45:70:95:6c:
                    9d:c5
                Exponent: 65537 (0x10001)
        X509v3 extensions:
            X509v3 Subject Key Identifier: 
                2F:74:AE:25:FB:80:77:03:CB:9B:90:1C:62:3F:D7:F8:C7:9C:2C:7F
            X509v3 Authority Key Identifier: 
                keyid:2F:74:AE:25:FB:80:77:03:CB:9B:90:1C:62:3F:D7:F8:C7:9C:2C:7F

            X509v3 Basic Constraints: 
                CA:TRUE
    Signature Algorithm: sha1WithRSAEncryption
         21:48:8b:96:a6:80:ed:c1:13:15:91:66:df:2e:c0:56:ce:34:
         8b:cb:4c:8b:9c:71:1c:5b:6b:b4:ad:8f:62:14:a2:10:d5:bd:
         ea:4d:d8:45:d0:9b:34:a8:32:b1:d7:98:80:34:72:33:f6:39:
         f5:b4:9a:02:ce:c9:4f:bc:a8:0f:e3:3f:b4:a8:ec:3b:61:d6:
         25:a3:a3:72:a6:53:02:cc:27:dc:4d:47:17:31:e8:31:f0:82:
         b9:e7:96:d0:93:d
         85:5b:1d:ef:be:93:82:dc:a9:d7:26:2c:74:39:ba:47:79:a2:
         09:57:a7:5e:87:d6:c0:92:4a:ad:ab:b0:9b:c7:39:58:d6:bf:
         1f:24:1c:27
-----BEGIN CERTIFICATE-----
MIIDszCCApugAwIBAgIJAM62dIinh2uIMA0GCSqGSIb3DQEBBQUAMHAxCzAJBgNV
BAYTAkdEMQswCQYDVQQIDAJHRDEMMAoGA1UECgwDeXp4MQswCQYDVQQLDAJzYTEZ
MBcGA1UEAwwQbGRhcDAyLjUxeXp4LmNvbTEeMBwGCSqGSIb3DQEJARYPODc4OTc4
MDBAcXEuY29tMB4XDTE1MDgwNjE1MTAzMFoXDTE4MDgwNTE1MTAzMFowcDELMAkG
A1UEBhMCR0QxCzAJBgNVBAgMAkdEMQwwCgYDVQQKDAN5engxCzAJBgNVBAsMAnNh
MRkwFwYDVQQDDBBsZGFwMDIuNTF5enguY29tMR4wHAYJKoZIhvcNAQkBFg84Nzg5
NzgwMEB
-----END CERTIFICATE-----
